Certificate:
    Data:
        Version: 3 (0x2)
        Serial Number: 2623744619 (0x9c632a6b)
    Signature Algorithm: sha256WithRSAEncryption
        Issuer: C=US, ST=California, L=San Francisco, O=Twitch, OU=Twitch Developer Rig, CN=Twitch Developer Rig CA/emailAddress=twitchdev@twitch.tv
        Validity
            Not Before: Oct 28 16:27:46 2018 GMT
            Not After : Aug 11 16:27:46 2292 GMT
        Subject: C=US, ST=California, L=San Francisco, O=Twitch, OU=Twitch Developer Rig, CN=Twitch Developer Rig
        Subject Public Key Info:
            Public Key Algorithm: rsaEncryption
                Public-Key: (2048 bit)
                Modulus:
                    00:af:ce:e2:af:dd:bb:c7:42:ea:4d:38:9b:6e:86:
                    a3:9c:88:76:6b:8b:4b:55:29:d4:4f:da:91:47:8f:
                    86:55:56:c6:bc:45:2c:a1:e4:7e:d9:15:51:82:a5:
                    2e:ca:dc:da:67:11:24:c2:d1:c2:c0:ea:35:07:7e:
                    dd:dc:7d:30:e7:58:3b:0c:af:7f:7e:b3:45:eb:8b:
                    1f:80:d9:75:31:49:16:5f:eb:66:bc:ae:94:4c:71:
                    a0:e2:43:91:22:36:ef:54:ee:bd:76:1d:a1:a9:7f:
                    64:aa:3b:1e:09:4f:c8:8e:09:db:e9:11:17:6a:a5:
                    63:95:e9:da:00:c4:5f:28:1d:b9:60:fe:be:1b:ee:
                    b6:e5:d6:76:23:9e:bd:39:ac:cf:bd:4c:ed:1a:62:
                    cb:e5:1b:eb:5b:a4:d4:6c:7b:56:2c:62:05:32:0a:
                    9b:a5:2d:7c:95:be:0b:9c:b7:16:a7:3a:7d:3e:ae:
                    93:5d:fc:8b:e7:a6:c8:df:a2:2c:e5:38:a8:ab:29:
                    14:e1:45:d7:23:d8:b5:3f:95:bd:c8:34:6d:6c:c3:
                    bc:07:99:cf:94:9d:40:c5:99:51:c3:2e:ab:c7:44:
                    39:5b:e8:a9:fb:5a:6e:d1:39:3f:13:ee:b0:72:bc:
                    3b:32:1c:e8:13:d0:1f:5c:5c:63:5b:95:34:41:b7:
                    e5:c7
                Exponent: 65537 (0x10001)
        X509v3 extensions:
            X509v3 Subject Key Identifier: 
                87:49:79:EF:EC:2A:F8:69:80:DF:DA:E9:20:F4:4C:02:2E:0D:AA:6F
            X509v3 Authority Key Identifier: 
                keyid:85:B5:3F:7F:A3:14:10:57:BD:F2:D4:46:7D:40:66:79:BD:26:99:11

            X509v3 Basic Constraints: 
                CA:FALSE
            X509v3 Key Usage: 
                Digital Signature, Key Encipherment
            X509v3 Subject Alternative Name: 
                IP Address:127.0.0.1, IP Address:0:0:0:0:0:0:0:1, DNS:localhost.rig.twitch.tv, DNS:localhost
            Netscape Comment: 
                OpenSSL Generated Certificate
    Signature Algorithm: sha256WithRSAEncryption
         21:5e:2d:72:5a:c3:b4:0d:f3:c0:d0:99:bf:18:59:93:0b:44:
         ba:5a:5e:4e:99:6f:0a:0a:57:4e:61:f9:25:67:3d:5c:77:3b:
         c0:32:87:81:dd:36:07:1a:be:e9:9a:c8:88:ab:71:ca:e1:63:
         f9:c9:59:e9:c2:8f:3a:7b:de:48:5f:77:f4:5b:00:1f:16:b6:
         c8:ba:dd:6c:87:f4:da:38:eb:de:36:7c:39:4c:e1:1b:7e:93:
         c0:5e:cb:8e:95:9a:1c:a8:e4:27:91:31:a7:f4:de:82:54:ee:
         9a:e8:af:18:af:46:63:d2:5a:55:3d:df:c3:b8:7e:4b:83:a1:
         00:d2:c0:76:c5:d6:42:b2:2b:ca:ba:d9:1b:8f:cd:a1:88:95:
         35:32:db:61:45:4b:ba:a0:83:d1:dc:1e:4b:57:1c:02:ac:1c:
         d2:a8:1b:13:37:4a:18:a1:1c:94:63:5f:51:e5:4c:00:10:28:
         c4:08:07:89:82:5c:cb:86:6b:35:76:1b:46:98:82:af:9b:03:
         db:45:6e:73:bb:f6:4e:48:27:ab:3b:55:af:95:05:e3:d9:6e:
         85:e9:dc:a8:76:d4:b5:a0:dd:0a:bc:18:56:05:c0:b2:10:da:
         52:86:43:b0:c5:14:65:ce:1e:e4:16:8a:0b:a8:bc:16:cf:47:
         a5:f3:ca:4e:13:51:e1:fb:49:63:bd:b8:d0:2c:f3:a8:a1:82:
         bc:27:f2:cc:37:c4:8a:0f:8a:06:46:71:e9:3e:11:b8:6a:fa:
         f8:cd:12:55:c5:fd:11:79:e1:4d:97:3c:ac:79:e5:a3:fc:6e:
         b8:68:37:48:b0:48:07:ba:1c:b0:ce:db:1c:f7:da:94:09:f7:
         20:ee:15:a4:b4:c7:b9:c7:4d:bf:47:2a:a4:e5:60:a9:06:03:
         8c:56:4c:39:b8:4a:5f:6d:32:bd:36:12:a3:27:4a:fe:d7:93:
         86:f5:b1:08:12:51:a0:47:9d:f6:a5:ce:85:25:56:5a:22:d6:
         8e:f8:2d:08:66:e9:27:7d:42:93:0a:c5:c3:f6:64:99:e6:28:
         e0:d1:ed:3c:42:cd:fb:c0:87:d0:85:e9:b1:e1:f7:6a:3e:ab:
         99:5d:05:2a:7c:98:6c:aa:b8:e6:32:c6:a1:ac:fe:47:c7:b5:
         9e:8f:e8:84:59:e7:54:81:0b:df:4d:56:90:87:18:c2:f6:27:
         2c:19:6f:08:6c:4f:1c:38:dc:ed:2d:a8:23:20:83:eb:f7:bd:
         13:11:74:4d:f8:76:70:68:b3:f5:54:2e:8d:81:c1:32:95:7b:
         03:8b:2e:9a:d3:2a:96:ea:d7:ef:c6:c1:96:c9:9f:14:6a:d0:
         76:a5:32:ba:eb:17:19:91
-----BEGIN CERTIFICATE-----
MIIFjTCCA3WgAwIBAgIFAJxjKmswDQYJKoZIhvcNAQELBQAwgbAxCzAJBgNVBAYT
AlVTMRMwEQYDVQQIDApDYWxpZm9ybmlhMRYwFAYDVQQHDA1TYW4gRnJhbmNpc2Nv
MQ8wDQYDVQQKDAZUd2l0Y2gxHTAbBgNVBAsMFFR3aXRjaCBEZXZlbG9wZXIgUmln
MSAwHgYDVQQDDBdUd2l0Y2ggRGV2ZWxvcGVyIFJpZyBDQTEiMCAGCSqGSIb3DQEJ
ARYTdHdpdGNoZGV2QHR3aXRjaC50djAgFw0xODEwMjgxNjI3NDZaGA8yMjkyMDgx
MTE2Mjc0NlowgYkxCzAJBgNVBAYTAlVTMRMwEQYDVQQIDApDYWxpZm9ybmlhMRYw
FAYDVQQHDA1TYW4gRnJhbmNpc2NvMQ8wDQYDVQQKDAZUd2l0Y2gxHTAbBgNVBAsM
FFR3aXRjaCBEZXZlbG9wZXIgUmlnMR0wGwYDVQQDDBRUd2l0Y2ggRGV2ZWxvcGVy
IFJpZzCCASIwDQYJKoZIhvcNAQEBBQADggEPADCCAQoCggEBAK/O4q/du8dC6k04
m26Go5yIdmuLS1Up1E/akUePhlVWxrxFLKHkftkVUYKlLsrc2mcRJMLRwsDqNQd+
3dx9MOdYOwyvf36zReuLH4DZdTFJFl/rZryulExxoOJDkSI271TuvXYdoal/ZKo7
HglPyI4J2+kRF2qlY5Xp2gDEXygduWD+vhvutuXWdiOevTmsz71M7Rpiy+Ub61uk
1Gx7VixiBTIKm6UtfJW+C5y3Fqc6fT6uk138i+emyN+iLOU4qKspFOFF1yPYtT+V
vcg0bWzDvAeZz5SdQMWZUcMuq8dEOVvoqftabtE5PxPusHK8OzIc6BPQH1xcY1uV
NEG35ccCAwEAAaOB0DCBzTAdBgNVHQ4EFgQUh0l57+wq+GmA39rpIPRMAi4Nqm8w
HwYDVR0jBBgwFoAUhbU/f6MUEFe98tRGfUBmeb0mmREwCQYDVR0TBAIwADALBgNV
HQ8EBAMCBaAwRQYDVR0RBD4wPIcEfwAAAYcQAAAAAAAAAAAAAAAAAAAAAYIXbG9j
YWxob3N0LnJpZy50d2l0Y2gudHaCCWxvY2FsaG9zdDAsBglghkgBhvhCAQ0EHxYd
T3BlblNTTCBHZW5lcmF0ZWQgQ2VydGlmaWNhdGUwDQYJKoZIhvcNAQELBQADggIB
ACFeLXJaw7QN88DQmb8YWZMLRLpaXk6ZbwoKV05h+SVnPVx3O8Ayh4HdNgcavuma
yIirccrhY/nJWenCjzp73khfd/RbAB8Wtsi63WyH9No46942fDlM4Rt+k8Bey46V
mhyo5CeRMaf03oJU7prorxivRmPSWlU938O4fkuDoQDSwHbF1kKyK8q62RuPzaGI
lTUy22FFS7qgg9HcHktXHAKsHNKoGxM3ShihHJRjX1HlTAAQKMQIB4mCXMuGazV2
G0aYgq+bA9tFbnO79k5IJ6s7Va+VBePZboXp3Kh21LWg3Qq8GFYFwLIQ2lKGQ7DF
FGXOHuQWiguovBbPR6Xzyk4TUeH7SWO9uNAs86ihgrwn8sw3xIoPigZGcek+Ebhq
+vjNElXF/RF54U2XPKx55aP8brhoN0iwSAe6HLDO2xz32pQJ9yDuFaS0x7nHTb9H
KqTlYKkGA4xWTDm4Sl9tMr02EqMnSv7Xk4b1sQgSUaBHnfalzoUlVloi1o74LQhm
6Sd9QpMKxcP2ZJnmKODR7TxCzfvAh9CF6bHh92o+q5ldBSp8mGyquOYyxqGs/kfH
tZ6P6IRZ51SBC99NVpCHGML2JywZbwhsTxw43O0tqCMgg+v3vRMRdE34dnBos/VU
Lo2BwTKVewOLLprTKpbq1+/GwZbJnxRq0HalMrrrFxmR
-----END CERTIFICATE-----
